; ModuleID = '4/2152.c'
source_filename = "4/2152.c"
target datalayout = "e-m:e-p270:32:32-p271:32:32-p272:64:64-i64:64-f80:128-n8:16:32:64-S128"
target triple = "x86_64-pc-linux-gnu"

@.str = private unnamed_addr constant [6 x i8] c"%d %d\00", align 1
@.str.1 = private unnamed_addr constant [3 x i8] c"%d\00", align 1
@.str.2 = private unnamed_addr constant [4 x i8] c"%d\0A\00", align 1

; Function Attrs: noinline nounwind uwtable
define dso_local i32 @main() #0 {
  %1 = alloca i32, align 4
  %2 = alloca i32, align 4
  %3 = alloca i32, align 4
  %4 = alloca i32, align 4
  %5 = alloca i32, align 4
  %6 = alloca i32, align 4
  %7 = alloca i32, align 4
  %8 = alloca [120 x [120 x i32]], align 16
  store i32 0, i32* %1, align 4
  %9 = call i32 (i8*, ...) @__isoc99_scanf(i8* getelementptr inbounds ([6 x i8], [6 x i8]* @.str, i64 0, i64 0), i32* %2, i32* %3)
  store i32 1, i32* %5, align 4
  br label %10

10:                                               ; preds = %31, %0
  %11 = load i32, i32* %5, align 4
  %12 = load i32, i32* %2, align 4
  %13 = icmp sle i32 %11, %12
  br i1 %13, label %14, label %34

14:                                               ; preds = %10
  store i32 1, i32* %6, align 4
  br label %15

15:                                               ; preds = %27, %14
  %16 = load i32, i32* %6, align 4
  %17 = load i32, i32* %3, align 4
  %18 = icmp sle i32 %16, %17
  br i1 %18, label %19, label %30

19:                                               ; preds = %15
  %20 = load i32, i32* %5, align 4
  %21 = sext i32 %20 to i64
  %22 = getelementptr inbounds [120 x [120 x i32]], [120 x [120 x i32]]* %8, i64 0, i64 %21
  %23 = load i32, i32* %6, align 4
  %24 = sext i32 %23 to i64
  %25 = getelementptr inbounds [120 x i32], [120 x i32]* %22, i64 0, i64 %24
  %26 = call i32 (i8*, ...) @__isoc99_scanf(i8* getelementptr inbounds ([3 x i8], [3 x i8]* @.str.1, i64 0, i64 0), i32* %25)
  br label %27

27:                                               ; preds = %19
  %28 = load i32, i32* %6, align 4
  %29 = add nsw i32 %28, 1
  store i32 %29, i32* %6, align 4
  br label %15

30:                                               ; preds = %15
  br label %31

31:                                               ; preds = %30
  %32 = load i32, i32* %5, align 4
  %33 = add nsw i32 %32, 1
  store i32 %33, i32* %5, align 4
  br label %10

34:                                               ; preds = %10
  store i32 1, i32* %5, align 4
  br label %35

35:                                               ; preds = %64, %34
  %36 = load i32, i32* %5, align 4
  %37 = load i32, i32* %3, align 4
  %38 = icmp sle i32 %36, %37
  br i1 %38, label %39, label %67

39:                                               ; preds = %35
  %40 = load i32, i32* %5, align 4
  store i32 %40, i32* %7, align 4
  store i32 1, i32* %6, align 4
  br label %41

41:                                               ; preds = %50, %39
  %42 = load i32, i32* %7, align 4
  %43 = icmp sge i32 %42, 1
  br i1 %43, label %44, label %48

44:                                               ; preds = %41
  %45 = load i32, i32* %6, align 4
  %46 = load i32, i32* %2, align 4
  %47 = icmp sle i32 %45, %46
  br label %48

48:                                               ; preds = %44, %41
  %49 = phi i1 [ false, %41 ], [ %47, %44 ]
  br i1 %49, label %50, label %63

50:                                               ; preds = %48
  %51 = load i32, i32* %6, align 4
  %52 = sext i32 %51 to i64
  %53 = getelementptr inbounds [120 x [120 x i32]], [120 x [120 x i32]]* %8, i64 0, i64 %52
  %54 = load i32, i32* %7, align 4
  %55 = sext i32 %54 to i64
  %56 = getelementptr inbounds [120 x i32], [120 x i32]* %53, i64 0, i64 %55
  %57 = load i32, i32* %56, align 4
  %58 = call i32 (i8*, ...) @printf(i8* getelementptr inbounds ([4 x i8], [4 x i8]* @.str.2, i64 0, i64 0), i32 %57)
  %59 = load i32, i32* %6, align 4
  %60 = add nsw i32 %59, 1
  store i32 %60, i32* %6, align 4
  %61 = load i32, i32* %7, align 4
  %62 = add nsw i32 %61, -1
  store i32 %62, i32* %7, align 4
  br label %41

63:                                               ; preds = %48
  br label %64

64:                                               ; preds = %63
  %65 = load i32, i32* %5, align 4
  %66 = add nsw i32 %65, 1
  store i32 %66, i32* %5, align 4
  br label %35

67:                                               ; preds = %35
  store i32 2, i32* %6, align 4
  br label %68

68:                                               ; preds = %99, %67
  %69 = load i32, i32* %6, align 4
  %70 = load i32, i32* %2, align 4
  %71 = icmp sle i32 %69, %70
  br i1 %71, label %72, label %102

72:                                               ; preds = %68
  %73 = load i32, i32* %3, align 4
  store i32 %73, i32* %7, align 4
  %74 = load i32, i32* %6, align 4
  store i32 %74, i32* %5, align 4
  br label %75

75:                                               ; preds = %84, %72
  %76 = load i32, i32* %6, align 4
  %77 = load i32, i32* %2, align 4
  %78 = icmp sle i32 %76, %77
  br i1 %78, label %79, label %82

79:                                               ; preds = %75
  %80 = load i32, i32* %7, align 4
  %81 = icmp sge i32 %80, 1
  br label %82

82:                                               ; preds = %79, %75
  %83 = phi i1 [ false, %75 ], [ %81, %79 ]
  br i1 %83, label %84, label %97

84:                                               ; preds = %82
  %85 = load i32, i32* %6, align 4
  %86 = sext i32 %85 to i64
  %87 = getelementptr inbounds [120 x [120 x i32]], [120 x [120 x i32]]* %8, i64 0, i64 %86
  %88 = load i32, i32* %7, align 4
  %89 = sext i32 %88 to i64
  %90 = getelementptr inbounds [120 x i32], [120 x i32]* %87, i64 0, i64 %89
  %91 = load i32, i32* %90, align 4
  %92 = call i32 (i8*, ...) @printf(i8* getelementptr inbounds ([4 x i8], [4 x i8]* @.str.2, i64 0, i64 0), i32 %91)
  %93 = load i32, i32* %6, align 4
  %94 = add nsw i32 %93, 1
  store i32 %94, i32* %6, align 4
  %95 = load i32, i32* %7, align 4
  %96 = add nsw i32 %95, -1
  store i32 %96, i32* %7, align 4
  br label %75

97:                                               ; preds = %82
  %98 = load i32, i32* %5, align 4
  store i32 %98, i32* %6, align 4
  br label %99

99:                                               ; preds = %97
  %100 = load i32, i32* %6, align 4
  %101 = add nsw i32 %100, 1
  store i32 %101, i32* %6, align 4
  br label %68

102:                                              ; preds = %68
  ret i32 0
}

declare dso_local i32 @__isoc99_scanf(i8*, ...) #1

declare dso_local i32 @printf(i8*, ...) #1


!llvm.module.flags = !{!0}
!llvm.ident = !{!1}

!0 = !{i32 1, !"wchar_size", i32 4}
!1 = !{!"clang version 10.0.0-4ubuntu1 "}
